; ModuleID = '11/145.c'
source_filename = "11/145.c"
target datalayout = "e-m:e-p270:32:32-p271:32:32-p272:64:64-i64:64-f80:128-n8:16:32:64-S128"
target triple = "x86_64-pc-linux-gnu"

@__const.main.x = private unnamed_addr constant [13 x i32] [i32 0, i32 31, i32 28, i32 31, i32 30, i32 31, i32 30, i32 31, i32 31, i32 30, i32 31, i32 30, i32 31], align 16
@__const.main.y = private unnamed_addr constant [13 x i32] [i32 0, i32 31, i32 29, i32 31, i32 30, i32 31, i32 30, i32 31, i32 31, i32 30, i32 31, i32 30, i32 31], align 16
@.str = private unnamed_addr constant [9 x i8] c"%d %d %d\00", align 1
@.str.1 = private unnamed_addr constant [3 x i8] c"%d\00", align 1

; Function Attrs: noinline nounwind uwtable
define dso_local i32 @main() #0 {
  %1 = alloca i32, align 4
  %2 = alloca i32, align 4
  %3 = alloca i32, align 4
  %4 = alloca i32, align 4
  %5 = alloca i32, align 4
  %6 = alloca [13 x i32], align 16
  %7 = alloca [13 x i32], align 16
  %8 = alloca i32, align 4
  store i32 0, i32* %1, align 4
  store i32 0, i32* %5, align 4
  %9 = bitcast [13 x i32]* %6 to i8*
  call void @llvm.memcpy.p0i8.p0i8.i64(i8* align 16 %9, i8* align 16 bitcast ([13 x i32]* @__const.main.x to i8*), i64 52, i1 false)
  %10 = bitcast [13 x i32]* %7 to i8*
  call void @llvm.memcpy.p0i8.p0i8.i64(i8* align 16 %10, i8* align 16 bitcast ([13 x i32]* @__const.main.y to i8*), i64 52, i1 false)
  %11 = call i32 (i8*, ...) @__isoc99_scanf(i8* getelementptr inbounds ([9 x i8], [9 x i8]* @.str, i64 0, i64 0), i32* %2, i32* %3, i32* %4)
  %12 = load i32, i32* %2, align 4
  %13 = srem i32 %12, 4
  %14 = icmp eq i32 %13, 0
  br i1 %14, label %15, label %19

15:                                               ; preds = %0
  %16 = load i32, i32* %2, align 4
  %17 = srem i32 %16, 100
  %18 = icmp ne i32 %17, 0
  br i1 %18, label %27, label %19

19:                                               ; preds = %15, %0
  %20 = load i32, i32* %2, align 4
  %21 = srem i32 %20, 100
  %22 = icmp eq i32 %21, 0
  br i1 %22, label %23, label %47

23:                                               ; preds = %19
  %24 = load i32, i32* %2, align 4
  %25 = srem i32 %24, 400
  %26 = icmp eq i32 %25, 0
  br i1 %26, label %27, label %47

27:                                               ; preds = %23, %15
  store i32 1, i32* %8, align 4
  br label %28

28:                                               ; preds = %39, %27
  %29 = load i32, i32* %8, align 4
  %30 = load i32, i32* %3, align 4
  %31 = icmp slt i32 %29, %30
  br i1 %31, label %32, label %42

32:                                               ; preds = %28
  %33 = load i32, i32* %5, align 4
  %34 = load i32, i32* %8, align 4
  %35 = sext i32 %34 to i64
  %36 = getelementptr inbounds [13 x i32], [13 x i32]* %7, i64 0, i64 %35
  %37 = load i32, i32* %36, align 4
  %38 = add nsw i32 %33, %37
  store i32 %38, i32* %5, align 4
  br label %39

39:                                               ; preds = %32
  %40 = load i32, i32* %8, align 4
  %41 = add nsw i32 %40, 1
  store i32 %41, i32* %8, align 4
  br label %28

42:                                               ; preds = %28
  %43 = load i32, i32* %5, align 4
  %44 = load i32, i32* %4, align 4
  %45 = add nsw i32 %43, %44
  %46 = call i32 (i8*, ...) @printf(i8* getelementptr inbounds ([3 x i8], [3 x i8]* @.str.1, i64 0, i64 0), i32 %45)
  br label %67

47:                                               ; preds = %23, %19
  store i32 1, i32* %8, align 4
  br label %48

48:                                               ; preds = %59, %47
  %49 = load i32, i32* %8, align 4
  %50 = load i32, i32* %3, align 4
  %51 = icmp slt i32 %49, %50
  br i1 %51, label %52, label %62

52:                                               ; preds = %48
  %53 = load i32, i32* %5, align 4
  %54 = load i32, i32* %8, align 4
  %55 = sext i32 %54 to i64
  %56 = getelementptr inbounds [13 x i32], [13 x i32]* %6, i64 0, i64 %55
  %57 = load i32, i32* %56, align 4
  %58 = add nsw i32 %53, %57
  store i32 %58, i32* %5, align 4
  br label %59

59:                                               ; preds = %52
  %60 = load i32, i32* %8, align 4
  %61 = add nsw i32 %60, 1
  store i32 %61, i32* %8, align 4
  br label %48

62:                                               ; preds = %48
  %63 = load i32, i32* %5, align 4
  %64 = load i32, i32* %4, align 4
  %65 = add nsw i32 %63, %64
  %66 = call i32 (i8*, ...) @printf(i8* getelementptr inbounds ([3 x i8], [3 x i8]* @.str.1, i64 0, i64 0), i32 %65)
  br label %67

67:                                               ; preds = %62, %42
  ret i32 0
}

; Function Attrs: argmemonly nounwind willreturn
declare void @llvm.memcpy.p0i8.p0i8.i64(i8* noalias nocapture writeonly, i8* noalias nocapture readonly, i64, i1 immarg) #1

declare dso_local i32 @__isoc99_scanf(i8*, ...) #2

declare dso_local i32 @printf(i8*, ...) #2


!llvm.module.flags = !{!0}
!llvm.ident = !{!1}

!0 = !{i32 1, !"wchar_size", i32 4}
!1 = !{!"clang version 10.0.0-4ubuntu1 "}
